; Function Attrs: nofree norecurse nosync nounwind memory(readwrite, inaccessiblemem: none) uwtable
define internal noundef i32 @filter_noinverse_dblp_noclip(ptr readnone captures(none) %0, ptr noundef readonly captures(none) %1, i32 noundef %2, i32 noundef %3) #6 {
  %5 = load ptr, ptr %1, align 8, !tbaa !44
  %6 = getelementptr inbounds nuw i8, ptr %1, i64 8
  %7 = load ptr, ptr %6, align 8, !tbaa !47
  %8 = getelementptr inbounds nuw i8, ptr %1, i64 16
  %9 = load ptr, ptr %8, align 8, !tbaa !46
  %10 = getelementptr inbounds nuw i8, ptr %1, i64 24
  %11 = load i32, ptr %10, align 8, !tbaa !48
  %12 = getelementptr inbounds nuw i8, ptr %1, i64 28
  %13 = load i32, ptr %12, align 4, !tbaa !50
  %14 = getelementptr inbounds nuw i8, ptr %1, i64 32
  %15 = load float, ptr %14, align 8, !tbaa !53
  %16 = fpext nsz float %15 to double
  %17 = mul nsw i32 %13, %2
  %18 = sdiv i32 %17, %3
  %19 = add nsw i32 %2, 1
  %20 = mul nsw i32 %13, %19
  %21 = sdiv i32 %20, %3
  %22 = icmp slt i32 %18, %21
  %23 = icmp sgt i32 %11, 0
  %or.cond = select i1 %22, i1 %23, i1 false
  br i1 %or.cond, label %.lr.ph.us.preheader, label %._crit_edge41

.lr.ph.us.preheader:                              ; preds = %4
  %24 = sext i32 %18 to i64
  %wide.trip.count47 = sext i32 %21 to i64
  %wide.trip.count = zext nneg i32 %11 to i64
  br label %.lr.ph.us

.lr.ph.us:                                        ; preds = %.lr.ph.us.preheader, %._crit_edge.us
  %indvars.iv44 = phi i64 [ %24, %.lr.ph.us.preheader ], [ %indvars.iv.next45, %._crit_edge.us ]
  %25 = getelementptr inbounds ptr, ptr %9, i64 %indvars.iv44
  %26 = load ptr, ptr %25, align 8, !tbaa !55
  %27 = getelementptr inbounds ptr, ptr %5, i64 %indvars.iv44
  %28 = load ptr, ptr %27, align 8, !tbaa !55
  %29 = getelementptr inbounds ptr, ptr %7, i64 %indvars.iv44
  %30 = load ptr, ptr %29, align 8, !tbaa !55
  %.pre = load double, ptr %30, align 8, !tbaa !76
  br label %31

31:                                               ; preds = %.lr.ph.us, %31
  %32 = phi double [ %.pre, %.lr.ph.us ], [ %34, %31 ]
  %indvars.iv = phi i64 [ 0, %.lr.ph.us ], [ %indvars.iv.next, %31 ]
  %33 = getelementptr inbounds nuw double, ptr %26, i64 %indvars.iv
  %34 = load double, ptr %33, align 8, !tbaa !76
  %35 = fsub nsz double %34, %32
  %36 = tail call nsz double @llvm.fmuladd.f64(double %35, double %16, double %34)
  %37 = getelementptr inbounds nuw double, ptr %28, i64 %indvars.iv
  store double %36, ptr %37, align 8, !tbaa !76
  store double %34, ptr %30, align 8, !tbaa !76
  %indvars.iv.next = add nuw nsw i64 %indvars.iv, 1
  %exitcond.not = icmp eq i64 %indvars.iv.next, %wide.trip.count
  br i1 %exitcond.not, label %._crit_edge.us, label %31, !llvm.loop !88

._crit_edge.us:                                   ; preds = %31
  %indvars.iv.next45 = add nsw i64 %indvars.iv44, 1
  %exitcond48.not = icmp eq i64 %indvars.iv.next45, %wide.trip.count47
  br i1 %exitcond48.not, label %._crit_edge41, label %.lr.ph.us, !llvm.loop !89

._crit_edge41:                                    ; preds = %._crit_edge.us, %4
  ret i32 0
}